target datalayout = "e-m:e-p270:32:32-p271:32:32-p272:64:64-i64:64-i128:128-f80:128-n8:16:32:64-S128"
target triple = "x86_64-pc-linux-gnu"

%"struct.duckdb_libpgquery::PGValue" = type { i32, %"union.duckdb_libpgquery::PGValue::ValUnion" }
%"union.duckdb_libpgquery::PGValue::ValUnion" = type { i64 }
%"struct.duckdb_libpgquery::PGAConst" = type { i32, %"struct.duckdb_libpgquery::PGValue", i32 }

; Function Attrs: mustprogress uwtable
define internal noundef ptr @_ZN17duckdb_libpgqueryL15makeStringConstEPci(ptr noundef %0, i32 noundef %1) #0 {
  %3 = alloca ptr, align 8
  %4 = alloca i32, align 4
  %5 = alloca ptr, align 8
  store ptr %0, ptr %3, align 8, !tbaa !470
  store i32 %1, ptr %4, align 4, !tbaa !7
  call void @llvm.lifetime.start.p0(i64 8, ptr %5) #13
  %6 = call noundef ptr @_ZN17duckdb_libpgquery7newNodeEmNS_9PGNodeTagE(i64 noundef 32, i32 noundef 355)
  store ptr %6, ptr %5, align 8, !tbaa !661
  %7 = load ptr, ptr %5, align 8, !tbaa !661
  %8 = getelementptr inbounds nuw %"struct.duckdb_libpgquery::PGAConst", ptr %7, i32 0, i32 1
  %9 = getelementptr inbounds nuw %"struct.duckdb_libpgquery::PGValue", ptr %8, i32 0, i32 0
  store i32 218, ptr %9, align 8, !tbaa !742
  %10 = load ptr, ptr %3, align 8, !tbaa !470
  %11 = load ptr, ptr %5, align 8, !tbaa !661
  %12 = getelementptr inbounds nuw %"struct.duckdb_libpgquery::PGAConst", ptr %11, i32 0, i32 1
  %13 = getelementptr inbounds nuw %"struct.duckdb_libpgquery::PGValue", ptr %12, i32 0, i32 1
  store ptr %10, ptr %13, align 8, !tbaa !22
  %14 = load i32, ptr %4, align 4, !tbaa !7
  %15 = load ptr, ptr %5, align 8, !tbaa !661
  %16 = getelementptr inbounds nuw %"struct.duckdb_libpgquery::PGAConst", ptr %15, i32 0, i32 2
  store i32 %14, ptr %16, align 8, !tbaa !745
  %17 = load ptr, ptr %5, align 8, !tbaa !661
  call void @llvm.lifetime.end.p0(i64 8, ptr %5) #13
  ret ptr %17
}

; Function Attrs: mustprogress uwtable
define internal noundef ptr @_ZN17duckdb_libpgqueryL12makeIntConstEii(i32 noundef %0, i32 noundef %1) #0 {
  %3 = alloca i32, align 4
  %4 = alloca i32, align 4
  %5 = alloca ptr, align 8
  store i32 %0, ptr %3, align 4, !tbaa !7
  store i32 %1, ptr %4, align 4, !tbaa !7
  call void @llvm.lifetime.start.p0(i64 8, ptr %5) #13
  %6 = call noundef ptr @_ZN17duckdb_libpgquery7newNodeEmNS_9PGNodeTagE(i64 noundef 32, i32 noundef 355)
  store ptr %6, ptr %5, align 8, !tbaa !661
  %7 = load ptr, ptr %5, align 8, !tbaa !661
  %8 = getelementptr inbounds nuw %"struct.duckdb_libpgquery::PGAConst", ptr %7, i32 0, i32 1
  %9 = getelementptr inbounds nuw %"struct.duckdb_libpgquery::PGValue", ptr %8, i32 0, i32 0
  store i32 216, ptr %9, align 8, !tbaa !742
  %10 = load i32, ptr %3, align 4, !tbaa !7
  %11 = sext i32 %10 to i64
  %12 = load ptr, ptr %5, align 8, !tbaa !661
  %13 = getelementptr inbounds nuw %"struct.duckdb_libpgquery::PGAConst", ptr %12, i32 0, i32 1
  %14 = getelementptr inbounds nuw %"struct.duckdb_libpgquery::PGValue", ptr %13, i32 0, i32 1
  store i64 %11, ptr %14, align 8, !tbaa !22
  %15 = load i32, ptr %4, align 4, !tbaa !7
  %16 = load ptr, ptr %5, align 8, !tbaa !661
  %17 = getelementptr inbounds nuw %"struct.duckdb_libpgquery::PGAConst", ptr %16, i32 0, i32 2
  store i32 %15, ptr %17, align 8, !tbaa !745
  %18 = load ptr, ptr %5, align 8, !tbaa !661
  call void @llvm.lifetime.end.p0(i64 8, ptr %5) #13
  ret ptr %18
}

; Function Attrs: mustprogress uwtable
define internal noundef ptr @_ZN17duckdb_libpgqueryL14makeFloatConstEPci(ptr noundef %0, i32 noundef %1) #0 {
  %3 = alloca ptr, align 8
  %4 = alloca i32, align 4
  %5 = alloca ptr, align 8
  store ptr %0, ptr %3, align 8, !tbaa !470
  store i32 %1, ptr %4, align 4, !tbaa !7
  call void @llvm.lifetime.start.p0(i64 8, ptr %5) #13
  %6 = call noundef ptr @_ZN17duckdb_libpgquery7newNodeEmNS_9PGNodeTagE(i64 noundef 32, i32 noundef 355)
  store ptr %6, ptr %5, align 8, !tbaa !661
  %7 = load ptr, ptr %5, align 8, !tbaa !661
  %8 = getelementptr inbounds nuw %"struct.duckdb_libpgquery::PGAConst", ptr %7, i32 0, i32 1
  %9 = getelementptr inbounds nuw %"struct.duckdb_libpgquery::PGValue", ptr %8, i32 0, i32 0
  store i32 217, ptr %9, align 8, !tbaa !742
  %10 = load ptr, ptr %3, align 8, !tbaa !470
  %11 = load ptr, ptr %5, align 8, !tbaa !661
  %12 = getelementptr inbounds nuw %"struct.duckdb_libpgquery::PGAConst", ptr %11, i32 0, i32 1
  %13 = getelementptr inbounds nuw %"struct.duckdb_libpgquery::PGValue", ptr %12, i32 0, i32 1
  store ptr %10, ptr %13, align 8, !tbaa !22
  %14 = load i32, ptr %4, align 4, !tbaa !7
  %15 = load ptr, ptr %5, align 8, !tbaa !661
  %16 = getelementptr inbounds nuw %"struct.duckdb_libpgquery::PGAConst", ptr %15, i32 0, i32 2
  store i32 %14, ptr %16, align 8, !tbaa !745
  %17 = load ptr, ptr %5, align 8, !tbaa !661
  call void @llvm.lifetime.end.p0(i64 8, ptr %5) #13
  ret ptr %17
}

; Function Attrs: mustprogress uwtable
define internal noundef ptr @_ZN17duckdb_libpgqueryL10makeAConstEPNS_7PGValueEi(ptr noundef %0, i32 noundef %1) #0 {
  %3 = alloca ptr, align 8
  %4 = alloca i32, align 4
  %5 = alloca ptr, align 8
  store ptr %0, ptr %3, align 8, !tbaa !746
  store i32 %1, ptr %4, align 4, !tbaa !7
  call void @llvm.lifetime.start.p0(i64 8, ptr %5) #13
  %6 = load ptr, ptr %3, align 8, !tbaa !746
  %7 = getelementptr inbounds nuw %"struct.duckdb_libpgquery::PGValue", ptr %6, i32 0, i32 0
  %8 = load i32, ptr %7, align 8, !tbaa !814
  switch i32 %8, label %23 [
    i32 217, label %9
    i32 216, label %15
    i32 218, label %22
  ]

9:                                                ; preds = %2
  %10 = load ptr, ptr %3, align 8, !tbaa !746
  %11 = getelementptr inbounds nuw %"struct.duckdb_libpgquery::PGValue", ptr %10, i32 0, i32 1
  %12 = load ptr, ptr %11, align 8, !tbaa !22
  %13 = load i32, ptr %4, align 4, !tbaa !7
  %14 = call noundef ptr @_ZN17duckdb_libpgqueryL14makeFloatConstEPci(ptr noundef %12, i32 noundef %13)
  store ptr %14, ptr %5, align 8, !tbaa !408
  br label %29

15:                                               ; preds = %2
  %16 = load ptr, ptr %3, align 8, !tbaa !746
  %17 = getelementptr inbounds nuw %"struct.duckdb_libpgquery::PGValue", ptr %16, i32 0, i32 1
  %18 = load i64, ptr %17, align 8, !tbaa !22
  %19 = trunc i64 %18 to i32
  %20 = load i32, ptr %4, align 4, !tbaa !7
  %21 = call noundef ptr @_ZN17duckdb_libpgqueryL12makeIntConstEii(i32 noundef %19, i32 noundef %20)
  store ptr %21, ptr %5, align 8, !tbaa !408
  br label %29

22:                                               ; preds = %2
  br label %23

23:                                               ; preds = %2, %22
  %24 = load ptr, ptr %3, align 8, !tbaa !746
  %25 = getelementptr inbounds nuw %"struct.duckdb_libpgquery::PGValue", ptr %24, i32 0, i32 1
  %26 = load ptr, ptr %25, align 8, !tbaa !22
  %27 = load i32, ptr %4, align 4, !tbaa !7
  %28 = call noundef ptr @_ZN17duckdb_libpgqueryL15makeStringConstEPci(ptr noundef %26, i32 noundef %27)
  store ptr %28, ptr %5, align 8, !tbaa !408
  br label %29

29:                                               ; preds = %23, %15, %9
  %30 = load ptr, ptr %5, align 8, !tbaa !408
  call void @llvm.lifetime.end.p0(i64 8, ptr %5) #13
  ret ptr %30
}