; Function Attrs: mustprogress uwtable
define internal fastcc noundef ptr @_ZN17duckdb_libpgqueryL10makeAConstEPNS_7PGValueEi(ptr noundef readonly captures(none) %0, i32 noundef %1) unnamed_addr #0 {
  %3 = load i32, ptr %0, align 8, !tbaa !611
  %4 = getelementptr inbounds nuw i8, ptr %0, i64 8
  switch i32 %3, label %16 [
    i32 217, label %5
    i32 216, label %10
  ]

5:                                                ; preds = %2
  %6 = load ptr, ptr %4, align 8, !tbaa !9
  %7 = tail call noundef ptr @_ZN17duckdb_libpgquery7newNodeEmNS_9PGNodeTagE(i64 noundef 32, i32 noundef 355)
  %8 = getelementptr inbounds nuw i8, ptr %7, i64 8
  store i32 217, ptr %8, align 8, !tbaa !146
  %9 = getelementptr inbounds nuw i8, ptr %7, i64 16
  store ptr %6, ptr %9, align 8, !tbaa !9
  br label %21

10:                                               ; preds = %2
  %11 = load i64, ptr %4, align 8, !tbaa !9
  %12 = tail call noundef ptr @_ZN17duckdb_libpgquery7newNodeEmNS_9PGNodeTagE(i64 noundef 32, i32 noundef 355)
  %13 = getelementptr inbounds nuw i8, ptr %12, i64 8
  store i32 216, ptr %13, align 8, !tbaa !146
  %sext = shl i64 %11, 32
  %14 = ashr exact i64 %sext, 32
  %15 = getelementptr inbounds nuw i8, ptr %12, i64 16
  store i64 %14, ptr %15, align 8, !tbaa !9
  br label %21

16:                                               ; preds = %2
  %17 = load ptr, ptr %4, align 8, !tbaa !9
  %18 = tail call noundef ptr @_ZN17duckdb_libpgquery7newNodeEmNS_9PGNodeTagE(i64 noundef 32, i32 noundef 355)
  %19 = getelementptr inbounds nuw i8, ptr %18, i64 8
  store i32 218, ptr %19, align 8, !tbaa !146
  %20 = getelementptr inbounds nuw i8, ptr %18, i64 16
  store ptr %17, ptr %20, align 8, !tbaa !9
  br label %21

21:                                               ; preds = %16, %10, %5
  %.sink7 = phi ptr [ %18, %16 ], [ %12, %10 ], [ %7, %5 ]
  %22 = getelementptr inbounds nuw i8, ptr %.sink7, i64 24
  store i32 %1, ptr %22, align 8, !tbaa !149
  ret ptr %.sink7
}